target datalayout = "e-m:e-p270:32:32-p271:32:32-p272:64:64-i64:64-i128:128-f80:128-n8:16:32:64-S128"
target triple = "x86_64-pc-linux-gnu"

%class.OopHandle = type { ptr }
%class.ZGeneration = type { ptr, i8, ptr, ptr, %class.ZForwardingTable, %class.ZWorkers, [24 x i8], %class.ZMark, %class.ZRelocate, %class.ZRelocationSet, i64, i64, i64, i32, i32, %class.ZStatHeap, %class.ZStatCycle, %class.ZStatWorkers, %class.ZStatMark, %class.ZStatRelocation, ptr }
%class.ZForwardingTable = type { %class.ZGranuleMap }
%class.ZGranuleMap = type { i64, ptr }
%class.ZWorkers = type { %class.WorkerThreads, ptr, %class.ZLock, i32, i8, ptr }
%class.WorkerThreads = type { ptr, ptr, ptr, i32, i32, i32, %class.WorkerTaskDispatcher }
%class.WorkerTaskDispatcher = type { ptr, i32, i32, %class.Semaphore, %class.Semaphore }
%class.Semaphore = type { %class.PosixSemaphore }
%class.PosixSemaphore = type { %union.sem_t }
%union.sem_t = type { i64, [24 x i8] }
%class.ZLock = type { %class.PlatformMutex }
%class.PlatformMutex = type { %union.pthread_mutex_t }
%union.pthread_mutex_t = type { %struct.__pthread_mutex_s }
%struct.__pthread_mutex_s = type { i32, i32, i32, i32, i32, i16, i16, %struct.__pthread_internal_list }
%struct.__pthread_internal_list = type { ptr, ptr }
%class.ZMark = type <{ ptr, ptr, [48 x i8], %class.ZMarkStackAllocator, %class.ZMarkStripeSet, %class.ZMarkTerminate, i64, i64, i64, i64, i64, i64, i32, [36 x i8] }>
%class.ZMarkStackAllocator = type <{ [64 x i8], %class.ZMarkStackSpace, [56 x i8], %class.ZStackList, i8, [63 x i8] }>
%class.ZMarkStackSpace = type <{ %class.ZLock, i64, i64, i64, i8, [7 x i8] }>
%class.ZStackList = type { i64, ptr, [48 x i8] }
%class.ZMarkStripeSet = type { i64, [56 x i8], [16 x %class.ZMarkStripe] }
%class.ZMarkStripe = type { %class.ZStackList.2, %class.ZStackList.2 }
%class.ZStackList.2 = type { i64, ptr, [48 x i8] }
%class.ZMarkTerminate = type { i32, i32, i32, i8, %class.ZConditionLock }
%class.ZConditionLock = type { %class.PlatformMonitor }
%class.PlatformMonitor = type { %class.PlatformMutex, %union.pthread_cond_t }
%union.pthread_cond_t = type { %struct.__pthread_cond_s }
%struct.__pthread_cond_s = type { %union.__atomic_wide_counter, %union.__atomic_wide_counter, [2 x i32], [2 x i32], i32, i32, [2 x i32] }
%union.__atomic_wide_counter = type { i64 }
%class.ZRelocate = type { ptr, %class.ZRelocateQueue }
%class.ZRelocateQueue = type { %class.ZConditionLock, %class.GrowableArrayCHeap, i32, i32, i8, i8, i32 }
%class.GrowableArrayCHeap = type { %class.GrowableArrayWithAllocator }
%class.GrowableArrayWithAllocator = type { %class.GrowableArrayView }
%class.GrowableArrayView = type { %class.GrowableArrayBase, ptr }
%class.GrowableArrayBase = type { i32, i32 }
%class.ZRelocationSet = type { ptr, %class.ZForwardingAllocator, ptr, i64, %class.ZLock, %class.GrowableArrayCHeap.4, %class.GrowableArrayCHeap.4 }
%class.ZForwardingAllocator = type { ptr, ptr, ptr }
%class.GrowableArrayCHeap.4 = type { %class.GrowableArrayWithAllocator.5 }
%class.GrowableArrayWithAllocator.5 = type { %class.GrowableArrayView.6 }
%class.GrowableArrayView.6 = type { %class.GrowableArrayBase, ptr }
%class.ZStatHeap = type { %class.ZLock, %"struct.ZStatHeap::ZAtGenerationCollectionStart", %"struct.ZStatHeap::ZAtMarkStart", %"struct.ZStatHeap::ZAtMarkEnd", %"struct.ZStatHeap::ZAtRelocateStart", %"struct.ZStatHeap::ZAtRelocateEnd", %class.NumberSeq }
%"struct.ZStatHeap::ZAtGenerationCollectionStart" = type { i64, i64, i64, i64, i64 }
%"struct.ZStatHeap::ZAtMarkStart" = type { i64, i64, i64, i64, i64, i64 }
%"struct.ZStatHeap::ZAtMarkEnd" = type { i64, i64, i64, i64, i64, i64, i64, i64 }
%"struct.ZStatHeap::ZAtRelocateStart" = type { i64, i64, i64, i64, i64, i64, i64, i64, i64, i64, i64 }
%"struct.ZStatHeap::ZAtRelocateEnd" = type { i64, i64, i64, i64, i64, i64, i64, i64, i64, i64, i64, i64, i64, i64, i64, i64, i64 }
%class.NumberSeq = type { %class.AbsSeq, double, double }
%class.AbsSeq = type { ptr, i32, double, double, double, double, double }
%class.ZStatCycle = type { %class.ZLock, i64, %class.TimeInstant, %class.TimeInstant, %class.NumberSeq, %class.NumberSeq, %class.NumberSeq, %class.NumberSeq, double }
%class.TimeInstant = type { %class.CompositeCounterRepresentation }
%class.CompositeCounterRepresentation = type { %class.Representation }
%class.Representation = type { %class.PairRep }
%class.PairRep = type { i64, i64 }
%class.ZStatWorkers = type { %class.ZLock, i32, %class.TimeInstant, %class.TimeInterval, %class.TimeInterval }
%class.TimeInterval = type { %class.CompositeCounterRepresentation }
%class.ZStatMark = type { i64, i64, i64, i64, i64, i64 }
%class.ZStatRelocation = type { %class.ZRelocationSetSelectorStats, i64, i64, i64, i64, i64 }
%class.ZRelocationSetSelectorStats = type { [16 x %class.ZRelocationSetSelectorGroupStats], [16 x %class.ZRelocationSetSelectorGroupStats], [16 x %class.ZRelocationSetSelectorGroupStats], i64 }
%class.ZRelocationSetSelectorGroupStats = type { i64, i64, i64, i64, i64, i64 }
%class.ZHeap = type <{ %class.ZPageAllocator, %class.ZPageTable, %class.ZAllocatorEden, [15 x %class.ZAllocatorForRelocation], %class.ZServiceability, [8 x i8], %class.ZGenerationOld, %class.ZGenerationYoung, i8, [63 x i8] }>
%class.ZPageAllocator = type <{ %class.ZLock, %class.ZPageCache, %class.ZVirtualMemoryManager, %class.ZPhysicalMemoryManager, i64, i64, i64, i64, i64, i64, i64, [2 x i64], [2 x %struct.anon.9], %class.ZList.10, ptr, ptr, %class.ZSafeDelete, %class.ZSafePageRecycle, i8, [7 x i8] }>
%class.ZPageCache = type { %class.ZValue, %class.ZList, %class.ZList, i64 }
%class.ZValue = type { i64 }
%class.ZList = type { %class.ZListNode, i64 }
%class.ZListNode = type { ptr, ptr }
%class.ZVirtualMemoryManager = type <{ %class.ZMemoryManager, i64, i8, [7 x i8] }>
%class.ZMemoryManager = type { %class.ZLock, %class.ZList.7, %"struct.ZMemoryManager::Callbacks" }
%class.ZList.7 = type { %class.ZListNode.8, i64 }
%class.ZListNode.8 = type { ptr, ptr }
%"struct.ZMemoryManager::Callbacks" = type { ptr, ptr, ptr, ptr, ptr, ptr }
%class.ZPhysicalMemoryManager = type { %class.ZPhysicalMemoryBacking, %class.ZMemoryManager }
%class.ZPhysicalMemoryBacking = type <{ i32, [4 x i8], i64, i64, i64, i64, i8, [7 x i8] }>
%struct.anon.9 = type { i64, i64 }
%class.ZList.10 = type { %class.ZListNode.11, i64 }
%class.ZListNode.11 = type { ptr, ptr }
%class.ZSafeDelete = type { %class.ZActivatedArray }
%class.ZActivatedArray = type { ptr, i64, %class.GrowableArrayCHeap.4 }
%class.ZSafePageRecycle = type { ptr, %class.ZActivatedArray }
%class.ZPageTable = type { %class.ZGranuleMap.12 }
%class.ZGranuleMap.12 = type { i64, ptr }
%class.ZAllocatorEden = type { %class.ZAllocator }
%class.ZAllocator = type { %class.ZObjectAllocator }
%class.ZObjectAllocator = type { i8, i8, %class.ZValue.13, %class.ZValue.13, %class.ZValue.14, %class.ZValue.15 }
%class.ZValue.13 = type { i64 }
%class.ZValue.14 = type { i64 }
%class.ZValue.15 = type { i64 }
%class.ZAllocatorForRelocation = type { %class.ZAllocator }
%class.ZServiceability = type { i64, i64, i64, %class.ZServiceabilityMemoryPool, %class.ZServiceabilityMemoryPool, %class.ZServiceabilityMemoryManager, %class.ZServiceabilityMemoryManager, %class.ZServiceabilityMemoryManager, %class.ZServiceabilityMemoryManager, ptr }
%class.ZServiceabilityMemoryPool = type { %class.CollectedMemoryPool.base, i8, [6 x i8] }
%class.CollectedMemoryPool.base = type { %class.MemoryPool.base }
%class.MemoryPool.base = type <{ ptr, ptr, i32, [4 x i8], i64, i64, i8, [7 x i8], [5 x ptr], i32, [4 x i8], %class.MemoryUsage, %class.MemoryUsage, ptr, ptr, ptr, ptr, %class.OopHandle, i8 }>
%class.MemoryUsage = type { i64, i64, i64, i64 }
%class.ZServiceabilityMemoryManager = type { %class.GCMemoryManager.base, i8 }
%class.GCMemoryManager.base = type <{ %class.MemoryManager.base, [7 x i8], i64, %class.elapsedTimer, ptr, ptr, ptr, i32, i8, [10 x i8] }>
%class.MemoryManager.base = type <{ ptr, [10 x ptr], i32, [4 x i8], ptr, %class.OopHandle, i8 }>
%class.elapsedTimer = type <{ i64, i64, i8, [7 x i8] }>
%class.ZGenerationOld = type { %class.ZGeneration, %class.ZReferenceProcessor, %class.ZWeakRootsProcessor, %class.ZUnload, i32, i32, %class.ZOldTracer }
%class.ZReferenceProcessor = type { %class.ReferenceDiscoverer, ptr, ptr, i8, %class.ZValue.16, %class.ZValue.16, %class.ZValue.16, %class.ZValue.17, %class.ZValue.18, i64 }
%class.ReferenceDiscoverer = type { ptr }
%class.ZValue.16 = type { i64 }
%class.ZValue.17 = type { i64 }
%class.ZValue.18 = type { i64 }
%class.ZWeakRootsProcessor = type { ptr }
%class.ZUnload = type { ptr }
%class.ZOldTracer = type { %class.ZGenerationTracer }
%class.ZGenerationTracer = type { ptr, %class.TimeInstant }
%class.ZGenerationYoung = type { %class.ZGeneration, i32, i32, %class.ZRemembered, %class.ZYoungTracer }
%class.ZRemembered = type { ptr, ptr, ptr, %"struct.ZRemembered::FoundOld" }
%"struct.ZRemembered::FoundOld" = type <{ %class.CHeapBitMap, %class.CHeapBitMap, [2 x ptr], i32, [4 x i8] }>
%class.CHeapBitMap = type <{ %class.GrowableBitMap, i8, [7 x i8] }>
%class.GrowableBitMap = type { %class.BitMap }
%class.BitMap = type { ptr, i64 }
%class.ZYoungTracer = type { %class.ZGenerationTracer }
%"struct.Atomic::PlatformLoad" = type { i8 }
%"struct.Atomic::LoadImpl.23" = type { i8 }
%class.ZPage = type { i8, i8, i8, i8, i32, i32, %class.ZVirtualMemory, i64, %class.ZLiveMap, %class.ZRememberedSet, i64, %class.ZPhysicalMemory, %class.ZListNode }
%class.ZVirtualMemory = type { i64, i64 }
%class.ZLiveMap = type { i32, i32, i64, i64, i64, %class.ZBitMap, i64 }
%class.ZBitMap = type { %class.CHeapBitMap.base, [7 x i8] }
%class.CHeapBitMap.base = type <{ %class.GrowableBitMap, i8 }>
%class.ZRememberedSet = type { [2 x %class.ZMovableBitMap] }
%class.ZMovableBitMap = type { %class.CHeapBitMap.base, [7 x i8] }
%class.ZPhysicalMemory = type { %class.GrowableArrayCHeap.20 }
%class.GrowableArrayCHeap.20 = type { %class.GrowableArrayWithAllocator.21 }
%class.GrowableArrayWithAllocator.21 = type { %class.GrowableArrayView.22 }
%class.GrowableArrayView.22 = type { %class.GrowableArrayBase, ptr }

@ZAddressOffsetMask = external global i64, align 8
@_ZN5ZHeap5_heapE = external global ptr, align 8
@_ZN11ZGeneration4_oldE = external global ptr, align 8

; Function Attrs: mustprogress nounwind uwtable
define linkonce_odr hidden noundef ptr @_ZNK6Atomic12PlatformLoadILm8EEclIP5ZPageEET_PVKS5_(ptr noundef nonnull align 1 dereferenceable(1) %0, ptr noundef %1) #1 comdat align 2 {
  %3 = alloca ptr, align 8
  %4 = alloca ptr, align 8
  store ptr %0, ptr %3, align 8
  store ptr %1, ptr %4, align 8
  %5 = load ptr, ptr %4, align 8
  %6 = load volatile ptr, ptr %5, align 8
  ret ptr %6
}

; Function Attrs: mustprogress nounwind uwtable
define linkonce_odr hidden noundef ptr @_ZNK6Atomic8LoadImplIP5ZPageNS_12PlatformLoadILm8EEEvEclEPVKS2_(ptr noundef nonnull align 1 dereferenceable(1) %0, ptr noundef %1) #1 comdat align 2 {
  %3 = alloca ptr, align 8
  %4 = alloca ptr, align 8
  %5 = alloca %"struct.Atomic::PlatformLoad", align 1
  store ptr %0, ptr %3, align 8
  store ptr %1, ptr %4, align 8
  %6 = load ptr, ptr %4, align 8
  %7 = call noundef ptr @_ZNK6Atomic12PlatformLoadILm8EEclIP5ZPageEET_PVKS5_(ptr noundef nonnull align 1 dereferenceable(1) %5, ptr noundef %6)
  ret ptr %7
}

; Function Attrs: mustprogress nounwind uwtable
define linkonce_odr hidden noundef ptr @_ZN6Atomic4loadIP5ZPageEET_PVKS3_(ptr noundef %0) #1 comdat align 2 {
  %2 = alloca ptr, align 8
  %3 = alloca %"struct.Atomic::LoadImpl.23", align 1
  store ptr %0, ptr %2, align 8
  %4 = load ptr, ptr %2, align 8
  %5 = call noundef ptr @_ZNK6Atomic8LoadImplIP5ZPageNS_12PlatformLoadILm8EEEvEclEPVKS2_(ptr noundef nonnull align 1 dereferenceable(1) %3, ptr noundef %4)
  ret ptr %5
}

; Function Attrs: mustprogress nounwind uwtable
define linkonce_odr hidden noundef i64 @_Z6untype7zoffset(i64 noundef %0) #1 comdat {
  %2 = alloca i64, align 8
  %3 = alloca i64, align 8
  store i64 %0, ptr %2, align 8
  %4 = load i64, ptr %2, align 8
  store i64 %4, ptr %3, align 8
  %5 = load i64, ptr %3, align 8
  ret i64 %5
}

; Function Attrs: mustprogress nounwind uwtable
define linkonce_odr hidden noundef ptr @_ZNK11ZGranuleMapIP5ZPageE2atEm(ptr noundef nonnull align 8 dereferenceable(16) %0, i64 noundef %1) #1 comdat align 2 {
  %3 = alloca ptr, align 8
  %4 = alloca i64, align 8
  store ptr %0, ptr %3, align 8
  store i64 %1, ptr %4, align 8
  %5 = load ptr, ptr %3, align 8
  %6 = getelementptr inbounds %class.ZGranuleMap.12, ptr %5, i32 0, i32 1
  %7 = load ptr, ptr %6, align 8
  %8 = load i64, ptr %4, align 8
  %9 = getelementptr inbounds ptr, ptr %7, i64 %8
  %10 = call noundef ptr @_ZN6Atomic4loadIP5ZPageEET_PVKS3_(ptr noundef %9)
  ret ptr %10
}

; Function Attrs: mustprogress nounwind uwtable
define linkonce_odr hidden noundef i64 @_ZNK11ZGranuleMapIP5ZPageE16index_for_offsetE7zoffset(ptr noundef nonnull align 8 dereferenceable(16) %0, i64 noundef %1) #1 comdat align 2 {
  %3 = alloca ptr, align 8
  %4 = alloca i64, align 8
  %5 = alloca i64, align 8
  store ptr %0, ptr %3, align 8
  store i64 %1, ptr %4, align 8
  %6 = load i64, ptr %4, align 8
  %7 = call noundef i64 @_Z6untype7zoffset(i64 noundef %6)
  %8 = lshr i64 %7, 21
  store i64 %8, ptr %5, align 8
  %9 = load i64, ptr %5, align 8
  ret i64 %9
}

; Function Attrs: mustprogress nounwind uwtable
define linkonce_odr hidden noundef i64 @_Z10to_zoffsetm(i64 noundef %0) #1 comdat {
  %2 = alloca i64, align 8
  store i64 %0, ptr %2, align 8
  %3 = load i64, ptr %2, align 8
  ret i64 %3
}

; Function Attrs: mustprogress nounwind uwtable
define linkonce_odr hidden noundef i64 @_Z6untype8zaddress(i64 noundef %0) #1 comdat {
  %2 = alloca i64, align 8
  store i64 %0, ptr %2, align 8
  %3 = load i64, ptr %2, align 8
  ret i64 %3
}

; Function Attrs: mustprogress nounwind uwtable
define linkonce_odr hidden noundef ptr @_ZNK11ZGranuleMapIP5ZPageE3getE7zoffset(ptr noundef nonnull align 8 dereferenceable(16) %0, i64 noundef %1) #1 comdat align 2 {
  %3 = alloca ptr, align 8
  %4 = alloca i64, align 8
  %5 = alloca i64, align 8
  store ptr %0, ptr %3, align 8
  store i64 %1, ptr %4, align 8
  %6 = load ptr, ptr %3, align 8
  %7 = load i64, ptr %4, align 8
  %8 = call noundef i64 @_ZNK11ZGranuleMapIP5ZPageE16index_for_offsetE7zoffset(ptr noundef nonnull align 8 dereferenceable(16) %6, i64 noundef %7)
  store i64 %8, ptr %5, align 8
  %9 = load i64, ptr %5, align 8
  %10 = call noundef ptr @_ZNK11ZGranuleMapIP5ZPageE2atEm(ptr noundef nonnull align 8 dereferenceable(16) %6, i64 noundef %9)
  ret ptr %10
}

; Function Attrs: mustprogress nounwind uwtable
define linkonce_odr hidden noundef i64 @_ZN8ZAddress6offsetE8zaddress(i64 noundef %0) #1 comdat align 2 {
  %2 = alloca i64, align 8
  store i64 %0, ptr %2, align 8
  %3 = load i64, ptr %2, align 8
  %4 = call noundef i64 @_Z6untype8zaddress(i64 noundef %3)
  %5 = load i64, ptr @ZAddressOffsetMask, align 8
  %6 = and i64 %4, %5
  %7 = call noundef i64 @_Z10to_zoffsetm(i64 noundef %6)
  ret i64 %7
}

; Function Attrs: mustprogress nounwind uwtable
define linkonce_odr hidden noundef ptr @_ZNK10ZPageTable3getE8zaddress(ptr noundef nonnull align 8 dereferenceable(16) %0, i64 noundef %1) #1 comdat align 2 {
  %3 = alloca ptr, align 8
  %4 = alloca i64, align 8
  store ptr %0, ptr %3, align 8
  store i64 %1, ptr %4, align 8
  %5 = load ptr, ptr %3, align 8
  %6 = getelementptr inbounds %class.ZPageTable, ptr %5, i32 0, i32 0
  %7 = load i64, ptr %4, align 8
  %8 = call noundef i64 @_ZN8ZAddress6offsetE8zaddress(i64 noundef %7)
  %9 = call noundef ptr @_ZNK11ZGranuleMapIP5ZPageE3getE7zoffset(ptr noundef nonnull align 8 dereferenceable(16) %6, i64 noundef %8)
  ret ptr %9
}

; Function Attrs: mustprogress nounwind uwtable
define linkonce_odr hidden noundef zeroext i1 @_ZNK5ZPage8is_youngEv(ptr noundef nonnull align 8 dereferenceable(192) %0) #1 comdat align 2 {
  %2 = alloca ptr, align 8
  store ptr %0, ptr %2, align 8
  %3 = load ptr, ptr %2, align 8
  %4 = getelementptr inbounds %class.ZPage, ptr %3, i32 0, i32 1
  %5 = load i8, ptr %4, align 1
  %6 = icmp eq i8 %5, 0
  ret i1 %6
}

; Function Attrs: mustprogress nounwind uwtable
define linkonce_odr hidden noundef ptr @_ZNK5ZHeap4pageE8zaddress(ptr noundef nonnull align 64 dereferenceable(15937) %0, i64 noundef %1) #1 comdat align 2 {
  %3 = alloca ptr, align 8
  %4 = alloca i64, align 8
  store ptr %0, ptr %3, align 8
  store i64 %1, ptr %4, align 8
  %5 = load ptr, ptr %3, align 8
  %6 = getelementptr inbounds %class.ZHeap, ptr %5, i32 0, i32 1
  %7 = load i64, ptr %4, align 8
  %8 = call noundef ptr @_ZNK10ZPageTable3getE8zaddress(ptr noundef nonnull align 8 dereferenceable(16) %6, i64 noundef %7)
  ret ptr %8
}

; Function Attrs: mustprogress nounwind uwtable
define linkonce_odr hidden noundef zeroext i1 @_ZNK5ZHeap8is_youngE8zaddress(ptr noundef nonnull align 64 dereferenceable(15937) %0, i64 noundef %1) #1 comdat align 2 {
  %3 = alloca ptr, align 8
  %4 = alloca i64, align 8
  store ptr %0, ptr %3, align 8
  store i64 %1, ptr %4, align 8
  %5 = load ptr, ptr %3, align 8
  %6 = load i64, ptr %4, align 8
  %7 = call noundef ptr @_ZNK5ZHeap4pageE8zaddress(ptr noundef nonnull align 64 dereferenceable(15937) %5, i64 noundef %6)
  %8 = call noundef zeroext i1 @_ZNK5ZPage8is_youngEv(ptr noundef nonnull align 8 dereferenceable(192) %7)
  ret i1 %8
}

; Function Attrs: mustprogress nounwind uwtable
define linkonce_odr hidden void @_ZN11ZGeneration11mark_objectILb0ELb1ELb1ELb0EEEv8zaddress(ptr noundef nonnull align 64 dereferenceable(6592) %0, i64 noundef %1) #1 comdat align 2 {
  %3 = alloca ptr, align 8
  %4 = alloca i64, align 8
  store ptr %0, ptr %3, align 8
  store i64 %1, ptr %4, align 8
  %5 = load ptr, ptr %3, align 8
  %6 = getelementptr inbounds %class.ZGeneration, ptr %5, i32 0, i32 7
  %7 = load i64, ptr %4, align 8
  call void @_ZN5ZMark11mark_objectILb0ELb1ELb1ELb0EEEv8zaddress(ptr noundef nonnull align 64 dereferenceable(2652) %6, i64 noundef %7)
  ret void
}

; Function Attrs: mustprogress nounwind uwtable
define linkonce_odr hidden noundef ptr @_ZN11ZGeneration3oldEv() #1 comdat align 2 {
  %1 = load ptr, ptr @_ZN11ZGeneration4_oldE, align 8
  ret ptr %1
}

; Function Attrs: mustprogress nounwind uwtable
define linkonce_odr hidden noundef zeroext i1 @_ZNK5ZHeap6is_oldE8zaddress(ptr noundef nonnull align 64 dereferenceable(15937) %0, i64 noundef %1) #1 comdat align 2 {
  %3 = alloca ptr, align 8
  %4 = alloca i64, align 8
  store ptr %0, ptr %3, align 8
  store i64 %1, ptr %4, align 8
  %5 = load ptr, ptr %3, align 8
  %6 = load i64, ptr %4, align 8
  %7 = call noundef zeroext i1 @_ZNK5ZHeap8is_youngE8zaddress(ptr noundef nonnull align 64 dereferenceable(15937) %5, i64 noundef %6)
  %8 = xor i1 %7, true
  ret i1 %8
}

; Function Attrs: mustprogress nounwind uwtable
define linkonce_odr hidden noundef ptr @_ZN5ZHeap4heapEv() #1 comdat align 2 {
  %1 = load ptr, ptr @_ZN5ZHeap5_heapE, align 8
  ret ptr %1
}

; Function Attrs: mustprogress nounwind uwtable
define linkonce_odr hidden noundef zeroext i1 @_Z7is_null8zaddress(i64 noundef %0) #1 comdat {
  %2 = alloca i64, align 8
  store i64 %0, ptr %2, align 8
  %3 = load i64, ptr %2, align 8
  %4 = icmp eq i64 %3, 0
  ret i1 %4
}

; Function Attrs: mustprogress nounwind uwtable
define hidden noundef i64 @_ZN8ZBarrier23mark_from_old_slow_pathE8zaddress(i64 noundef %0) #1 align 2 {
  %2 = alloca i64, align 8
  %3 = alloca i64, align 8
  store i64 %0, ptr %3, align 8
  %4 = load i64, ptr %3, align 8
  %5 = call noundef zeroext i1 @_Z7is_null8zaddress(i64 noundef %4)
  br i1 %5, label %6, label %8

6:                                                ; preds = %1
  %7 = load i64, ptr %3, align 8
  store i64 %7, ptr %2, align 8
  br label %17

8:                                                ; preds = %1
  %9 = call noundef ptr @_ZN5ZHeap4heapEv()
  %10 = load i64, ptr %3, align 8
  %11 = call noundef zeroext i1 @_ZNK5ZHeap6is_oldE8zaddress(ptr noundef nonnull align 64 dereferenceable(15937) %9, i64 noundef %10)
  br i1 %11, label %12, label %16

12:                                               ; preds = %8
  %13 = call noundef ptr @_ZN11ZGeneration3oldEv()
  %14 = load i64, ptr %3, align 8
  call void @_ZN11ZGeneration11mark_objectILb0ELb1ELb1ELb0EEEv8zaddress(ptr noundef nonnull align 64 dereferenceable(6592) %13, i64 noundef %14)
  %15 = load i64, ptr %3, align 8
  store i64 %15, ptr %2, align 8
  br label %17

16:                                               ; preds = %8
  store i64 0, ptr %2, align 8
  br label %17

17:                                               ; preds = %16, %12, %6
  %18 = load i64, ptr %2, align 8
  ret i64 %18
}