; Function Attrs: mustprogress nounwind uwtable
define hidden noundef i64 @_ZN8ZBarrier23mark_from_old_slow_pathE8zaddress(i64 noundef %0) local_unnamed_addr #0 align 2 {
  %2 = icmp eq i64 %0, 0
  br i1 %2, label %17, label %3

3:                                                ; preds = %1
  %4 = load ptr, ptr @_ZN5ZHeap5_heapE, align 8
  %5 = load i64, ptr @ZAddressOffsetMask, align 8
  %6 = and i64 %5, %0
  %7 = lshr i64 %6, 21
  %8 = getelementptr inbounds i8, ptr %4, i64 624
  %9 = load ptr, ptr %8, align 8
  %10 = getelementptr inbounds ptr, ptr %9, i64 %7
  %11 = load volatile ptr, ptr %10, align 8
  %12 = getelementptr inbounds i8, ptr %11, i64 1
  %13 = load i8, ptr %12, align 1
  %.not = icmp eq i8 %13, 0
  br i1 %.not, label %17, label %14

14:                                               ; preds = %3
  %15 = load ptr, ptr @_ZN11ZGeneration4_oldE, align 8
  %16 = getelementptr inbounds i8, ptr %15, i64 256
  tail call void @_ZN5ZMark11mark_objectILb0ELb1ELb1ELb0EEEv8zaddress(ptr noundef nonnull align 64 dereferenceable(2652) %16, i64 noundef %0)
  br label %17

17:                                               ; preds = %3, %1, %14
  %.0 = phi i64 [ %0, %14 ], [ 0, %1 ], [ 0, %3 ]
  ret i64 %.0
}